; Function Attrs: mustprogress nounwind uwtable
define hidden void @_ZN24SurvivorMutableSpacePoolC2EP10PSYoungGenPKcb(ptr noundef nonnull align 8 dereferenceable(216) %0, ptr noundef %1, ptr noundef %2, i1 noundef zeroext %3) unnamed_addr #0 align 2 {
  %5 = getelementptr inbounds i8, ptr %1, i64 40
  %6 = load ptr, ptr %5, align 8
  %7 = getelementptr inbounds i8, ptr %6, i64 48
  %8 = load ptr, ptr %7, align 8
  %9 = getelementptr inbounds i8, ptr %6, i64 32
  %10 = load ptr, ptr %9, align 8
  %11 = ptrtoint ptr %8 to i64
  %12 = ptrtoint ptr %10 to i64
  %13 = sub i64 %11, %12
  %14 = and i64 %13, -8
  tail call void @_ZN10MemoryPoolC2EPKcNS_8PoolTypeEmmbb(ptr noundef nonnull align 8 dereferenceable(201) %0, ptr noundef %2, i32 noundef 1, i64 noundef %14, i64 noundef %14, i1 noundef zeroext %3, i1 noundef zeroext true) #3
  store ptr getelementptr inbounds inrange(-16, 64) (i8, ptr @_ZTV24SurvivorMutableSpacePool, i64 16), ptr %0, align 8
  %15 = getelementptr inbounds i8, ptr %0, i64 208
  store ptr %1, ptr %15, align 8
  ret void
}